; Function Attrs: nounwind uwtable
define ptr @l_Lake_stdFormat___at_Lake_ExternLib_staticFacetConfig___spec__1(i8 noundef zeroext %0, ptr noundef %1) local_unnamed_addr #0 {
  %3 = icmp eq i8 %0, 0
  br i1 %3, label %12, label %4

4:                                                ; preds = %2
  %5 = tail call ptr @l_Lake_mkRelPathString(ptr noundef %1) #5
  tail call void @lean_inc_heartbeat() #5
  %6 = tail call noalias ptr @mi_malloc_small(i64 noundef 16) #5
  %7 = icmp eq ptr %6, null
  br i1 %7, label %8, label %lean_alloc_ctor.exit

8:                                                ; preds = %4
  tail call void @lean_internal_panic_out_of_memory() #6
  unreachable

lean_alloc_ctor.exit:                             ; preds = %4
  %9 = getelementptr inbounds nuw i8, ptr %6, i64 4
  store i32 1, ptr %6, align 4, !tbaa !8
  store i32 50397200, ptr %9, align 4
  %10 = getelementptr inbounds nuw i8, ptr %6, i64 8
  store ptr %5, ptr %10, align 8, !tbaa !4
  %11 = tail call ptr @l_Lean_Json_compress(ptr noundef nonnull %6) #5
  br label %12

12:                                               ; preds = %2, %lean_alloc_ctor.exit
  %.0 = phi ptr [ %11, %lean_alloc_ctor.exit ], [ %1, %2 ]
  ret ptr %.0
}